; Function Attrs: uwtable
define hidden noundef ptr @_ZThn104_N19OpenColorIO_v2_5dev18CTFReaderMatrixElt15updateDimensionERKSt6vectorIjSaIjEE(ptr noundef readonly captures(none) %0, ptr noundef nonnull readonly align 8 captures(none) dereferenceable(24) %1) unnamed_addr #21 align 2 {
  %3 = getelementptr inbounds nuw i8, ptr %1, i64 8
  %4 = load ptr, ptr %3, align 8, !tbaa !88
  %5 = load ptr, ptr %1, align 8, !tbaa !84
  %6 = ptrtoint ptr %4 to i64
  %7 = ptrtoint ptr %5 to i64
  %8 = sub i64 %6, %7
  %.not.i = icmp eq i64 %8, 12
  br i1 %.not.i, label %9, label %_ZN19OpenColorIO_v2_5dev18CTFReaderMatrixElt15updateDimensionERKSt6vectorIjSaIjEE.exit

9:                                                ; preds = %2
  %10 = getelementptr inbounds nuw i8, ptr %5, i64 8
  %11 = load i32, ptr %10, align 4, !tbaa !35
  %12 = load i32, ptr %5, align 4, !tbaa !35
  %13 = getelementptr inbounds nuw i8, ptr %5, i64 4
  %14 = load i32, ptr %13, align 4, !tbaa !35
  %15 = icmp ne i32 %12, %14
  %16 = icmp ne i32 %11, 3
  %or.cond.i = select i1 %15, i1 true, i1 %16
  br i1 %or.cond.i, label %_ZN19OpenColorIO_v2_5dev18CTFReaderMatrixElt15updateDimensionERKSt6vectorIjSaIjEE.exit, label %17

17:                                               ; preds = %9
  %18 = getelementptr inbounds nuw i8, ptr %0, i64 16
  %19 = load ptr, ptr %18, align 8, !tbaa !1168
  %20 = getelementptr inbounds nuw i8, ptr %19, i64 168
  %21 = zext i32 %12 to i64
  %22 = load ptr, ptr %20, align 8, !tbaa !9
  %23 = getelementptr inbounds nuw i8, ptr %22, i64 56
  %24 = load ptr, ptr %23, align 8
  tail call void %24(ptr noundef nonnull align 8 dereferenceable(48) %20, i64 noundef %21, i64 noundef 3)
  br label %_ZN19OpenColorIO_v2_5dev18CTFReaderMatrixElt15updateDimensionERKSt6vectorIjSaIjEE.exit

_ZN19OpenColorIO_v2_5dev18CTFReaderMatrixElt15updateDimensionERKSt6vectorIjSaIjEE.exit: ; preds = %2, %9, %17
  %.0.i = phi ptr [ null, %2 ], [ %20, %17 ], [ null, %9 ]
  ret ptr %.0.i
}